target datalayout = "e-m:e-p270:32:32-p271:32:32-p272:64:64-i64:64-i128:128-f80:128-n8:16:32:64-S128"
target triple = "x86_64-pc-linux-gnu"

%struct.cLLog_private = type { i32, i32, [5 x i8], [5 x i8], [20 x i8], i32, i32, %struct.cCLLog_timeStamp_t, [20 x i8], i8, i8, i8, i8, i8, i8, i32, i32, i32, [7 x ptr], %struct.cCLLog_timeStamp_t }
%struct.cCLLog_timeStamp_t = type { i64, i16 }

@g_ascii_table = external constant ptr, align 8
@.str.33 = private unnamed_addr constant [33 x i8] c"cllog: %s separator is not valid\00", align 1
@.str.38 = private unnamed_addr constant [14 x i8] c"date and time\00", align 1

; Function Attrs: null_pointer_is_valid sspstrong uwtable
define internal zeroext i1 @parseSeparator(ptr noundef %0, ptr noundef %1, ptr noundef %2, ptr noundef %3, ptr noundef %4) #0 {
  %6 = alloca i1, align 1
  %7 = alloca ptr, align 8
  %8 = alloca ptr, align 8
  %9 = alloca ptr, align 8
  %10 = alloca ptr, align 8
  %11 = alloca ptr, align 8
  %12 = alloca i8, align 1
  %13 = alloca i32, align 4
  store ptr %0, ptr %7, align 8
  store ptr %1, ptr %8, align 8
  store ptr %2, ptr %9, align 8
  store ptr %3, ptr %10, align 8
  store ptr %4, ptr %11, align 8
  call void @llvm.lifetime.start.p0(i64 1, ptr %12) #13
  store i8 0, ptr %12, align 1
  %14 = load ptr, ptr %7, align 8
  %15 = call i64 @strlen(ptr noundef %14) #16
  %16 = icmp eq i64 %15, 3
  br i1 %16, label %17, label %49

17:                                               ; preds = %5
  %18 = load ptr, ptr %7, align 8
  %19 = getelementptr i8, ptr %18, i64 0
  %20 = load i8, ptr %19, align 1
  %21 = sext i8 %20 to i32
  %22 = icmp ne i32 %21, 34
  br i1 %22, label %40, label %23

23:                                               ; preds = %17
  %24 = load ptr, ptr @g_ascii_table, align 8
  %25 = load ptr, ptr %7, align 8
  %26 = getelementptr i8, ptr %25, i64 1
  %27 = load i8, ptr %26, align 1
  %28 = zext i8 %27 to i64
  %29 = getelementptr i16, ptr %24, i64 %28
  %30 = load i16, ptr %29, align 2
  %31 = zext i16 %30 to i32
  %32 = and i32 %31, 64
  %33 = icmp ne i32 %32, 0
  br i1 %33, label %34, label %40

34:                                               ; preds = %23
  %35 = load ptr, ptr %7, align 8
  %36 = getelementptr i8, ptr %35, i64 2
  %37 = load i8, ptr %36, align 1
  %38 = sext i8 %37 to i32
  %39 = icmp ne i32 %38, 34
  br i1 %39, label %40, label %45

40:                                               ; preds = %34, %23, %17
  %41 = load ptr, ptr %10, align 8
  store i32 -13, ptr %41, align 4
  %42 = load ptr, ptr %9, align 8
  %43 = call noalias ptr (ptr, ptr, ...) @wmem_strdup_printf(ptr noundef null, ptr noundef @.str.33, ptr noundef %42)
  %44 = load ptr, ptr %11, align 8
  store ptr %43, ptr %44, align 8
  store i1 false, ptr %6, align 1
  store i32 1, ptr %13, align 4
  br label %52

45:                                               ; preds = %34
  %46 = load ptr, ptr %7, align 8
  %47 = getelementptr i8, ptr %46, i64 1
  %48 = load i8, ptr %47, align 1
  store i8 %48, ptr %12, align 1
  br label %49

49:                                               ; preds = %45, %5
  %50 = load i8, ptr %12, align 1
  %51 = load ptr, ptr %8, align 8
  store i8 %50, ptr %51, align 1
  store i1 true, ptr %6, align 1
  store i32 1, ptr %13, align 4
  br label %52

52:                                               ; preds = %49, %40
  call void @llvm.lifetime.end.p0(i64 1, ptr %12) #13
  %53 = load i1, ptr %6, align 1
  ret i1 %53
}

; Function Attrs: null_pointer_is_valid sspstrong uwtable
define internal zeroext i1 @parseLogFileHeaderLine_timeAndDateSeparator(ptr noundef %0, ptr noundef %1, ptr noundef %2, ptr noundef %3) #0 {
  %5 = alloca ptr, align 8
  %6 = alloca ptr, align 8
  %7 = alloca ptr, align 8
  %8 = alloca ptr, align 8
  store ptr %0, ptr %5, align 8
  store ptr %1, ptr %6, align 8
  store ptr %2, ptr %7, align 8
  store ptr %3, ptr %8, align 8
  %9 = load ptr, ptr %6, align 8
  %10 = load ptr, ptr %5, align 8
  %11 = getelementptr inbounds nuw %struct.cLLog_private, ptr %10, i32 0, i32 14
  %12 = load ptr, ptr %7, align 8
  %13 = load ptr, ptr %8, align 8
  %14 = call zeroext i1 @parseSeparator(ptr noundef %9, ptr noundef %11, ptr noundef @.str.38, ptr noundef %12, ptr noundef %13)
  ret i1 %14
}